target datalayout = "e-m:e-p270:32:32-p271:32:32-p272:64:64-i64:64-i128:128-f80:128-n8:16:32:64-S128"
target triple = "x86_64-pc-linux-gnu"

%struct.If_Par_t_ = type { i32, i32, i32, i32, i32, i32, float, float, i32, i32, i32, i32, i32, i32, i32, i32, i32, i32, i32, i32, i32, i32, i32, i32, i32, i32, i32, i32, i32, i32, i32, i32, i32, i32, i32, i32, i32, i32, i32, i32, i32, i32, i32, i32, i32, i32, i32, i32, i32, ptr, float, i32, i32, i32, i32, i32, i32, i32, i32, i32, i32, i32, i32, i32, i32, float, float, float, ptr, ptr, ptr, ptr, ptr, ptr, ptr, ptr, ptr }

; Function Attrs: nounwind uwtable
define void @Nwk_ManSetIfParsDefault(ptr noundef %0) #0 {
  %2 = alloca ptr, align 8
  store ptr %0, ptr %2, align 8
  %3 = load ptr, ptr %2, align 8
  call void @llvm.memset.p0.i64(ptr align 8 %3, i8 0, i64 352, i1 false)
  %4 = load ptr, ptr %2, align 8
  %5 = getelementptr inbounds %struct.If_Par_t_, ptr %4, i32 0, i32 0
  store i32 6, ptr %5, align 8
  %6 = load ptr, ptr %2, align 8
  %7 = getelementptr inbounds %struct.If_Par_t_, ptr %6, i32 0, i32 1
  store i32 8, ptr %7, align 4
  %8 = load ptr, ptr %2, align 8
  %9 = getelementptr inbounds %struct.If_Par_t_, ptr %8, i32 0, i32 2
  store i32 1, ptr %9, align 8
  %10 = load ptr, ptr %2, align 8
  %11 = getelementptr inbounds %struct.If_Par_t_, ptr %10, i32 0, i32 3
  store i32 2, ptr %11, align 4
  %12 = load ptr, ptr %2, align 8
  %13 = getelementptr inbounds %struct.If_Par_t_, ptr %12, i32 0, i32 6
  store float -1.000000e+00, ptr %13, align 8
  %14 = load ptr, ptr %2, align 8
  %15 = getelementptr inbounds %struct.If_Par_t_, ptr %14, i32 0, i32 7
  store float 0x3F747AE140000000, ptr %15, align 4
  %16 = load ptr, ptr %2, align 8
  %17 = getelementptr inbounds %struct.If_Par_t_, ptr %16, i32 0, i32 13
  store i32 1, ptr %17, align 4
  %18 = load ptr, ptr %2, align 8
  %19 = getelementptr inbounds %struct.If_Par_t_, ptr %18, i32 0, i32 14
  store i32 0, ptr %19, align 8
  %20 = load ptr, ptr %2, align 8
  %21 = getelementptr inbounds %struct.If_Par_t_, ptr %20, i32 0, i32 15
  store i32 0, ptr %21, align 4
  %22 = load ptr, ptr %2, align 8
  %23 = getelementptr inbounds %struct.If_Par_t_, ptr %22, i32 0, i32 16
  store i32 1, ptr %23, align 8
  %24 = load ptr, ptr %2, align 8
  %25 = getelementptr inbounds %struct.If_Par_t_, ptr %24, i32 0, i32 17
  store i32 0, ptr %25, align 4
  %26 = load ptr, ptr %2, align 8
  %27 = getelementptr inbounds %struct.If_Par_t_, ptr %26, i32 0, i32 19
  store i32 1, ptr %27, align 4
  %28 = load ptr, ptr %2, align 8
  %29 = getelementptr inbounds %struct.If_Par_t_, ptr %28, i32 0, i32 20
  store i32 0, ptr %29, align 8
  %30 = load ptr, ptr %2, align 8
  %31 = getelementptr inbounds %struct.If_Par_t_, ptr %30, i32 0, i32 21
  store i32 0, ptr %31, align 4
  %32 = load ptr, ptr %2, align 8
  %33 = getelementptr inbounds %struct.If_Par_t_, ptr %32, i32 0, i32 47
  store i32 0, ptr %33, align 4
  %34 = load ptr, ptr %2, align 8
  %35 = getelementptr inbounds %struct.If_Par_t_, ptr %34, i32 0, i32 53
  store i32 0, ptr %35, align 4
  %36 = load ptr, ptr %2, align 8
  %37 = getelementptr inbounds %struct.If_Par_t_, ptr %36, i32 0, i32 59
  store i32 0, ptr %37, align 4
  %38 = load ptr, ptr %2, align 8
  %39 = getelementptr inbounds %struct.If_Par_t_, ptr %38, i32 0, i32 60
  store i32 0, ptr %39, align 8
  %40 = load ptr, ptr %2, align 8
  %41 = getelementptr inbounds %struct.If_Par_t_, ptr %40, i32 0, i32 63
  store i32 0, ptr %41, align 4
  %42 = load ptr, ptr %2, align 8
  %43 = getelementptr inbounds %struct.If_Par_t_, ptr %42, i32 0, i32 68
  store ptr null, ptr %43, align 8
  %44 = load ptr, ptr %2, align 8
  %45 = getelementptr inbounds %struct.If_Par_t_, ptr %44, i32 0, i32 69
  store ptr null, ptr %45, align 8
  %46 = load ptr, ptr %2, align 8
  %47 = getelementptr inbounds %struct.If_Par_t_, ptr %46, i32 0, i32 69
  store ptr null, ptr %47, align 8
  %48 = load ptr, ptr %2, align 8
  %49 = getelementptr inbounds %struct.If_Par_t_, ptr %48, i32 0, i32 71
  store ptr null, ptr %49, align 8
  ret void
}